; Function Attrs: nounwind uwtable
define void @Gia_ManSetRefsMapped(ptr noundef captures(none) %0) local_unnamed_addr #4 {
  %2 = getelementptr inbounds nuw i8, ptr %0, i64 144
  %3 = load ptr, ptr %2, align 8, !tbaa !65
  %.not = icmp eq ptr %3, null
  br i1 %.not, label %5, label %4

4:                                                ; preds = %1
  tail call void @free(ptr noundef nonnull %3) #27
  br label %5

5:                                                ; preds = %1, %4
  %6 = getelementptr i8, ptr %0, i64 24
  %.val33 = load i32, ptr %6, align 8, !tbaa !27
  %7 = sext i32 %.val33 to i64
  %8 = tail call noalias ptr @calloc(i64 noundef %7, i64 noundef 4) #26
  store ptr %8, ptr %2, align 8, !tbaa !65
  %9 = getelementptr inbounds nuw i8, ptr %0, i64 72
  %10 = load ptr, ptr %9, align 8, !tbaa !53
  %11 = getelementptr i8, ptr %10, i64 4
  %.val3744 = load i32, ptr %11, align 4, !tbaa !54
  %12 = icmp sgt i32 %.val3744, 0
  br i1 %12, label %.lr.ph, label %.critedge

.lr.ph:                                           ; preds = %5
  %13 = getelementptr i8, ptr %0, i64 32
  %.val38 = load ptr, ptr %13, align 8, !tbaa !55
  %.not31 = icmp eq ptr %.val38, null
  br i1 %.not31, label %.critedge, label %.lr.ph.split

.lr.ph.split:                                     ; preds = %.lr.ph
  %14 = getelementptr i8, ptr %10, i64 8
  %.val39.val = load ptr, ptr %14, align 8, !tbaa !47
  br label %15

15:                                               ; preds = %.lr.ph.split, %15
  %indvars.iv = phi i64 [ 0, %.lr.ph.split ], [ %indvars.iv.next, %15 ]
  %16 = getelementptr inbounds nuw i32, ptr %.val39.val, i64 %indvars.iv
  %17 = load i32, ptr %16, align 4, !tbaa !48
  %18 = sext i32 %17 to i64
  %19 = getelementptr inbounds %struct.Gia_Obj_t_, ptr %.val38, i64 %18
  %.val3.i = load i64, ptr %19, align 4
  %20 = trunc i64 %.val3.i to i32
  %21 = and i32 %20, 536870911
  %22 = sub nsw i32 %17, %21
  %23 = sext i32 %22 to i64
  %24 = getelementptr inbounds i32, ptr %8, i64 %23
  %25 = load i32, ptr %24, align 4, !tbaa !48
  %26 = add nsw i32 %25, 1
  store i32 %26, ptr %24, align 4, !tbaa !48
  %indvars.iv.next = add nuw nsw i64 %indvars.iv, 1
  %.val37 = load i32, ptr %11, align 4, !tbaa !54
  %27 = sext i32 %.val37 to i64
  %28 = icmp slt i64 %indvars.iv.next, %27
  br i1 %28, label %15, label %.critedge, !llvm.loop !66

.critedge:                                        ; preds = %15, %.lr.ph, %5
  %29 = icmp sgt i32 %.val33, 1
  br i1 %29, label %.lr.ph50, label %._crit_edge

.lr.ph50:                                         ; preds = %.critedge
  %30 = getelementptr i8, ptr %0, i64 264
  %.val34 = load ptr, ptr %30, align 8, !tbaa !46
  %31 = getelementptr i8, ptr %.val34, i64 8
  %.val34.val = load ptr, ptr %31, align 8, !tbaa !47
  %wide.trip.count = zext nneg i32 %.val33 to i64
  %invariant.gep = getelementptr i8, ptr %.val34.val, i64 4
  br label %32

32:                                               ; preds = %.lr.ph50, %.critedge2
  %indvars.iv55 = phi i64 [ 1, %.lr.ph50 ], [ %indvars.iv.next56, %.critedge2 ]
  %33 = getelementptr inbounds nuw i32, ptr %.val34.val, i64 %indvars.iv55
  %34 = load i32, ptr %33, align 4, !tbaa !48
  %.not43 = icmp eq i32 %34, 0
  br i1 %.not43, label %.critedge2, label %.preheader

.preheader:                                       ; preds = %32
  %35 = sext i32 %34 to i64
  %36 = getelementptr inbounds i32, ptr %.val34.val, i64 %35
  %37 = load i32, ptr %36, align 4, !tbaa !48
  %38 = icmp sgt i32 %37, 0
  br i1 %38, label %.lr.ph48, label %.critedge2

.lr.ph48:                                         ; preds = %.preheader, %.lr.ph48
  %indvars.iv52 = phi i64 [ %indvars.iv.next53, %.lr.ph48 ], [ 0, %.preheader ]
  %39 = phi i64 [ %47, %.lr.ph48 ], [ %35, %.preheader ]
  %gep = getelementptr i32, ptr %invariant.gep, i64 %39
  %40 = getelementptr inbounds nuw i32, ptr %gep, i64 %indvars.iv52
  %41 = load i32, ptr %40, align 4, !tbaa !48
  %42 = sext i32 %41 to i64
  %43 = getelementptr inbounds i32, ptr %8, i64 %42
  %44 = load i32, ptr %43, align 4, !tbaa !48
  %45 = add nsw i32 %44, 1
  store i32 %45, ptr %43, align 4, !tbaa !48
  %indvars.iv.next53 = add nuw nsw i64 %indvars.iv52, 1
  %46 = load i32, ptr %33, align 4, !tbaa !48
  %47 = sext i32 %46 to i64
  %48 = getelementptr inbounds i32, ptr %.val34.val, i64 %47
  %49 = load i32, ptr %48, align 4, !tbaa !48
  %50 = sext i32 %49 to i64
  %51 = icmp slt i64 %indvars.iv.next53, %50
  br i1 %51, label %.lr.ph48, label %.critedge2, !llvm.loop !67

.critedge2:                                       ; preds = %.lr.ph48, %.preheader, %32
  %indvars.iv.next56 = add nuw nsw i64 %indvars.iv55, 1
  %exitcond.not = icmp eq i64 %indvars.iv.next56, %wide.trip.count
  br i1 %exitcond.not, label %._crit_edge, label %32, !llvm.loop !68

._crit_edge:                                      ; preds = %.critedge2, %.critedge
  ret void
}